; Function Attrs: mustprogress uwtable
define void @_ZN3g2o15SparseOptimizer11setToOriginEv(ptr nocapture noundef nonnull readonly align 8 dereferenceable(409) %0) unnamed_addr #3 align 2 personality ptr @__gxx_personality_v0 {
  %2 = getelementptr inbounds i8, ptr %0, i64 24
  %.sroa.02.05 = load ptr, ptr %2, align 8
  %.not6 = icmp eq ptr %.sroa.02.05, null
  br i1 %.not6, label %._crit_edge, label %.lr.ph

.lr.ph:                                           ; preds = %1, %.lr.ph
  %.sroa.02.07 = phi ptr [ %.sroa.02.0, %.lr.ph ], [ %.sroa.02.05, %1 ]
  %3 = getelementptr inbounds i8, ptr %.sroa.02.07, i64 16
  %4 = load ptr, ptr %3, align 8
  %5 = load ptr, ptr %4, align 8
  %6 = getelementptr inbounds i8, ptr %5, i64 232
  %7 = load ptr, ptr %6, align 8
  tail call void %7(ptr noundef nonnull align 8 dereferenceable(128) %4)
  %8 = load ptr, ptr %4, align 8
  %9 = getelementptr inbounds i8, ptr %8, i64 216
  %10 = load ptr, ptr %9, align 8
  tail call void %10(ptr noundef nonnull align 8 dereferenceable(128) %4)
  %.sroa.02.0 = load ptr, ptr %.sroa.02.07, align 8
  %.not = icmp eq ptr %.sroa.02.0, null
  br i1 %.not, label %._crit_edge, label %.lr.ph, !llvm.loop !29

._crit_edge:                                      ; preds = %.lr.ph, %1
  ret void
}